target datalayout = "e-m:e-p270:32:32-p271:32:32-p272:64:64-i64:64-i128:128-f80:128-n8:16:32:64-S128"
target triple = "x86_64-pc-linux-gnu"

%struct._packet_info = type { ptr, ptr, i32, i32, %struct.nstime_t, %struct.nstime_t, %struct.nstime_t, i32, ptr, ptr, ptr, ptr, %struct._address, %struct._address, %struct._address, %struct._address, %struct._address, %struct._address, i32, ptr, i32, %struct.anon, i32, i32, i32, i32, ptr, i32, ptr, ptr, i16, i16, i32, i32, i16, i32, i32, ptr, ptr, ptr, i8, i8, i16, i16, i16, i32, i16, i16, ptr, ptr, ptr, ptr, ptr, i32 }
%struct.nstime_t = type { i64, i32 }
%struct._address = type { i32, i32, ptr, ptr }
%struct.anon = type { i8, [3 x i8] }
%struct._bluetooth_data_t = type { i32, i32, ptr, ptr, ptr, ptr, ptr, ptr, ptr, ptr, ptr, ptr, i32, %union.anon.4 }
%union.anon.4 = type { ptr }
%struct.wtap_rec = type { i32, i32, i32, %struct.nstime_t, i32, %struct.nstime_t, i32, %union.anon.5, ptr, i32, %struct.Buffer }
%union.anon.5 = type { %struct.wtap_packet_header }
%struct.wtap_packet_header = type { i32, i32, i32, i32, %union.wtap_pseudo_header }
%union.wtap_pseudo_header = type { %struct.erf_mc_phdr }
%struct.erf_mc_phdr = type { %struct.erf_phdr, [16 x %struct.erf_ehdr], %union.anon.8 }
%struct.erf_phdr = type { i64, i8, i8, i16, i16, i16 }
%struct.erf_ehdr = type { i64 }
%union.anon.8 = type { i32 }
%struct.Buffer = type { ptr, i64, i64, i64 }

@bluetooth_table = internal global ptr null, align 8

; Function Attrs: nounwind uwtable
define internal i32 @dissect_bluetooth(ptr noundef %0, ptr noundef %1, ptr noundef %2, ptr noundef %3) #1 {
  %5 = alloca ptr, align 8
  %6 = alloca ptr, align 8
  %7 = alloca ptr, align 8
  %8 = alloca ptr, align 8
  %9 = alloca ptr, align 8
  store ptr %0, ptr %5, align 8
  store ptr %1, ptr %6, align 8
  store ptr %2, ptr %7, align 8
  store ptr %3, ptr %8, align 8
  %10 = load ptr, ptr %5, align 8
  %11 = load ptr, ptr %6, align 8
  %12 = load ptr, ptr %7, align 8
  %13 = call ptr @dissect_bluetooth_common(ptr noundef %10, ptr noundef %11, ptr noundef %12)
  store ptr %13, ptr %9, align 8
  %14 = load ptr, ptr %9, align 8
  %15 = getelementptr inbounds %struct._bluetooth_data_t, ptr %14, i32 0, i32 12
  store i32 0, ptr %15, align 8
  %16 = load ptr, ptr %9, align 8
  %17 = getelementptr inbounds %struct._bluetooth_data_t, ptr %16, i32 0, i32 13
  store ptr null, ptr %17, align 8
  %18 = load ptr, ptr @bluetooth_table, align 8
  %19 = load ptr, ptr %6, align 8
  %20 = getelementptr inbounds %struct._packet_info, ptr %19, i32 0, i32 10
  %21 = load ptr, ptr %20, align 8
  %22 = getelementptr inbounds %struct.wtap_rec, ptr %21, i32 0, i32 7
  %23 = getelementptr inbounds %struct.wtap_packet_header, ptr %22, i32 0, i32 2
  %24 = load i32, ptr %23, align 8
  %25 = load ptr, ptr %5, align 8
  %26 = load ptr, ptr %6, align 8
  %27 = load ptr, ptr %7, align 8
  %28 = load ptr, ptr %9, align 8
  %29 = call i32 @dissector_try_uint_new(ptr noundef %18, i32 noundef %24, ptr noundef %25, ptr noundef %26, ptr noundef %27, i32 noundef 1, ptr noundef %28)
  %30 = icmp ne i32 %29, 0
  br i1 %30, label %36, label %31

31:                                               ; preds = %4
  %32 = load ptr, ptr %5, align 8
  %33 = load ptr, ptr %6, align 8
  %34 = load ptr, ptr %7, align 8
  %35 = call i32 @call_data_dissector(ptr noundef %32, ptr noundef %33, ptr noundef %34)
  br label %36

36:                                               ; preds = %31, %4
  %37 = load ptr, ptr %5, align 8
  %38 = call i32 @tvb_captured_length(ptr noundef %37)
  ret i32 %38
}