; Function Attrs: nounwind uwtable
define internal i32 @dissect_bluetooth(ptr noundef %0, ptr noundef initializes((280, 284)) %1, ptr noundef %2, ptr readnone captures(none) %3) #1 {
  %5 = tail call ptr @dissect_bluetooth_common(ptr noundef %0, ptr noundef %1, ptr noundef %2)
  %6 = getelementptr inbounds nuw i8, ptr %5, i64 88
  store i32 0, ptr %6, align 8
  %7 = getelementptr inbounds nuw i8, ptr %5, i64 96
  store ptr null, ptr %7, align 8
  %8 = load ptr, ptr @bluetooth_table, align 8
  %9 = getelementptr inbounds nuw i8, ptr %1, i64 96
  %10 = load ptr, ptr %9, align 8
  %11 = getelementptr inbounds nuw i8, ptr %10, i64 72
  %12 = load i32, ptr %11, align 8
  %13 = tail call i32 @dissector_try_uint_new(ptr noundef %8, i32 noundef %12, ptr noundef %0, ptr noundef %1, ptr noundef %2, i32 noundef 1, ptr noundef %5) #9
  %.not = icmp eq i32 %13, 0
  br i1 %.not, label %14, label %16

14:                                               ; preds = %4
  %15 = tail call i32 @call_data_dissector(ptr noundef %0, ptr noundef nonnull %1, ptr noundef %2) #9
  br label %16

16:                                               ; preds = %14, %4
  %17 = tail call i32 @tvb_captured_length(ptr noundef %0) #9
  ret i32 %17
}